ARM GAS  C:\Users\tetsuya\AppData\Local\Temp\cciQZLcF.s 			page 1


   1              		.syntax unified
   2              		.cpu cortex-m3
   3              		.fpu softvfp
   4              		.eabi_attribute 20, 1
   5              		.eabi_attribute 21, 1
   6              		.eabi_attribute 23, 3
   7              		.eabi_attribute 24, 1
   8              		.eabi_attribute 25, 1
   9              		.eabi_attribute 26, 1
  10              		.eabi_attribute 30, 1
  11              		.eabi_attribute 34, 1
  12              		.eabi_attribute 18, 4
  13              		.thumb
  14              		.syntax unified
  15              		.file	"main.c"
  16              		.text
  17              	.Ltext0:
  18              		.cfi_sections	.debug_frame
  19              		.global	__aeabi_i2d
  20              		.global	__aeabi_dmul
  21              		.global	__aeabi_dadd
  22              		.global	__aeabi_ddiv
  23              		.section	.text.main,"ax",%progbits
  24              		.align	2
  25              		.global	main
  26              		.thumb
  27              		.thumb_func
  28              		.type	main, %function
  29              	main:
  30              	.LFB64:
  31              		.file 1 "main.c"
   1:main.c        **** /* ========================================
   2:main.c        ****  *
   3:main.c        ****  * Copyright YOUR COMPANY, THE YEAR
   4:main.c        ****  * All Rights Reserved
   5:main.c        ****  * UNPUBLISHED, LICENSED SOFTWARE.
   6:main.c        ****  *
   7:main.c        ****  * CONFIDENTIAL AND PROPRIETARY INFORMATION
   8:main.c        ****  * WHICH IS THE PROPERTY OF your company.
   9:main.c        ****  *
  10:main.c        ****  * ========================================
  11:main.c        **** */
  12:main.c        **** #include "project.h"
  13:main.c        **** #include <stdio.h>
  14:main.c        **** #include <math.h>
  15:main.c        **** #include <string.h>
  16:main.c        **** #include "matrix.h"
  17:main.c        **** #include "PS3_Controller.h"
  18:main.c        **** 
  19:main.c        **** 
  20:main.c        **** #define MAX_POWER 230
  21:main.c        **** 
  22:main.c        **** int main(void)
  23:main.c        **** {
  32              		.loc 1 23 0
  33              		.cfi_startproc
  34              		@ args = 0, pretend = 0, frame = 128
ARM GAS  C:\Users\tetsuya\AppData\Local\Temp\cciQZLcF.s 			page 2


  35              		@ frame_needed = 0, uses_anonymous_args = 0
  36 0000 F0B5     		push	{r4, r5, r6, r7, lr}
  37              		.cfi_def_cfa_offset 20
  38              		.cfi_offset 4, -20
  39              		.cfi_offset 5, -16
  40              		.cfi_offset 6, -12
  41              		.cfi_offset 7, -8
  42              		.cfi_offset 14, -4
  43 0002 A5B0     		sub	sp, sp, #148
  44              		.cfi_def_cfa_offset 168
  24:main.c        ****  	PS3Controller ps3;
  25:main.c        ****     char i;
  26:main.c        **** 	int power;
  27:main.c        **** 	uint8 m[3] = {0};
  45              		.loc 1 27 0
  46 0004 0021     		movs	r1, #0
  47 0006 ADF88410 		strh	r1, [sp, #132]	@ movhi
  48 000a 8DF88610 		strb	r1, [sp, #134]
  28:main.c        ****     char na[3] = {0};
  49              		.loc 1 28 0
  50 000e ADF88010 		strh	r1, [sp, #128]	@ movhi
  51 0012 8DF88210 		strb	r1, [sp, #130]
  29:main.c        ****     double s;
  30:main.c        **** 	double x, y;
  31:main.c        ****     char output[100] = {0};   
  52              		.loc 1 31 0
  53 0016 6422     		movs	r2, #100
  54 0018 07A8     		add	r0, sp, #28
  55 001a FFF7FEFF 		bl	memset
  56              	.LVL0:
  32:main.c        **** 
  33:main.c        ****     CyGlobalIntEnable; /* Enable global interrupts. */
  57              		.loc 1 33 0
  58              		.syntax unified
  59              	@ 33 "main.c" 1
  60 001e 62B6     		CPSIE   i
  61              	@ 0 "" 2
  34:main.c        **** 
  35:main.c        ****     /* Place your initialization/startup code here (e.g. MyInst_Start()) */
  36:main.c        ****     motorD_Start();
  62              		.loc 1 36 0
  63              		.thumb
  64              		.syntax unified
  65 0020 FFF7FEFF 		bl	motorD_Start
  66              	.LVL1:
  37:main.c        ****     motorB_Start();
  67              		.loc 1 37 0
  68 0024 FFF7FEFF 		bl	motorB_Start
  69              	.LVL2:
  38:main.c        ****     motorC_Start();
  70              		.loc 1 38 0
  71 0028 FFF7FEFF 		bl	motorC_Start
  72              	.LVL3:
  39:main.c        **** 	PS3_Start();
  73              		.loc 1 39 0
  74 002c FFF7FEFF 		bl	PS3_Start
  75              	.LVL4:
ARM GAS  C:\Users\tetsuya\AppData\Local\Temp\cciQZLcF.s 			page 3


  40:main.c        ****     UART_1_Start();
  76              		.loc 1 40 0
  77 0030 FFF7FEFF 		bl	UART_1_Start
  78              	.LVL5:
  41:main.c        ****     CyDelay(5000);
  79              		.loc 1 41 0
  80 0034 41F28830 		movw	r0, #5000
  81 0038 FFF7FEFF 		bl	CyDelay
  82              	.LVL6:
  83              	.L12:
  42:main.c        ****     for(;;)
  43:main.c        ****     {
  44:main.c        **** 		ps3 = PS3_Controller_get();
  84              		.loc 1 44 0
  85 003c 04A8     		add	r0, sp, #16
  86 003e FFF7FEFF 		bl	PS3_Controller_get
  87              	.LVL7:
  88 0042 0498     		ldr	r0, [sp, #16]	@ unaligned
  89 0044 2290     		str	r0, [sp, #136]	@ unaligned
  90 0046 BDF81430 		ldrh	r3, [sp, #20]	@ unaligned
  91 004a ADF88C30 		strh	r3, [sp, #140]	@ unaligned
  45:main.c        ****         //sprintf(output, "%d %d\n", ps3.ANALOG_LX, ps3.ANALOG_LY);
  46:main.c        ****         //UART_1_PutString(output);
  47:main.c        **** 		x = ps3.ANALOG_LX - 64;
  92              		.loc 1 47 0
  93 004e 9DF88C00 		ldrb	r0, [sp, #140]	@ zero_extendqisi2
  94 0052 4038     		subs	r0, r0, #64
  95 0054 FFF7FEFF 		bl	__aeabi_i2d
  96              	.LVL8:
  97 0058 0646     		mov	r6, r0
  98 005a 0F46     		mov	r7, r1
  99              	.LVL9:
  48:main.c        **** 		y = ps3.ANALOG_LY - 64;
 100              		.loc 1 48 0
 101 005c 9DF88D00 		ldrb	r0, [sp, #141]	@ zero_extendqisi2
 102 0060 4038     		subs	r0, r0, #64
 103 0062 FFF7FEFF 		bl	__aeabi_i2d
 104              	.LVL10:
 105 0066 0446     		mov	r4, r0
 106 0068 0D46     		mov	r5, r1
 107              	.LVL11:
  49:main.c        ****         
  50:main.c        ****         s = x*x + y*y;
 108              		.loc 1 50 0
 109 006a 3246     		mov	r2, r6
 110 006c 3B46     		mov	r3, r7
 111 006e 3046     		mov	r0, r6
 112 0070 3946     		mov	r1, r7
 113 0072 FFF7FEFF 		bl	__aeabi_dmul
 114              	.LVL12:
 115 0076 0646     		mov	r6, r0
 116              	.LVL13:
 117 0078 0F46     		mov	r7, r1
 118 007a 2246     		mov	r2, r4
 119 007c 2B46     		mov	r3, r5
 120 007e 2046     		mov	r0, r4
 121 0080 2946     		mov	r1, r5
ARM GAS  C:\Users\tetsuya\AppData\Local\Temp\cciQZLcF.s 			page 4


 122 0082 FFF7FEFF 		bl	__aeabi_dmul
 123              	.LVL14:
 124 0086 0246     		mov	r2, r0
 125 0088 0B46     		mov	r3, r1
 126 008a 3046     		mov	r0, r6
 127 008c 3946     		mov	r1, r7
 128 008e FFF7FEFF 		bl	__aeabi_dadd
 129              	.LVL15:
  51:main.c        **** 		//power = (uint8)(sqrt((double)x * x + y * y));
  52:main.c        ****         power = (int)(sqrt(s));
 130              		.loc 1 52 0
 131 0092 FFF7FEFF 		bl	sqrt
 132              	.LVL16:
  53:main.c        ****         
  54:main.c        **** 		matrix(&ps3, m, na);
 133              		.loc 1 54 0
 134 0096 20AA     		add	r2, sp, #128
 135 0098 21A9     		add	r1, sp, #132
 136 009a 22A8     		add	r0, sp, #136
 137 009c FFF7FEFF 		bl	matrix
 138              	.LVL17:
  55:main.c        **** 		if (na[0]) {
 139              		.loc 1 55 0
 140 00a0 9DF88030 		ldrb	r3, [sp, #128]	@ zero_extendqisi2
 141 00a4 1BB1     		cbz	r3, .L2
  56:main.c        **** 			reverse_D_Write(1);
 142              		.loc 1 56 0
 143 00a6 0120     		movs	r0, #1
 144 00a8 FFF7FEFF 		bl	reverse_D_Write
 145              	.LVL18:
 146 00ac 02E0     		b	.L3
 147              	.L2:
  57:main.c        **** 		} else {
  58:main.c        **** 			reverse_D_Write(2);
 148              		.loc 1 58 0
 149 00ae 0220     		movs	r0, #2
 150 00b0 FFF7FEFF 		bl	reverse_D_Write
 151              	.LVL19:
 152              	.L3:
  59:main.c        ****         }
  60:main.c        **** 		if (na[1]) {
 153              		.loc 1 60 0
 154 00b4 9DF88130 		ldrb	r3, [sp, #129]	@ zero_extendqisi2
 155 00b8 1BB1     		cbz	r3, .L4
  61:main.c        **** 			reverse_B_Write(2);
 156              		.loc 1 61 0
 157 00ba 0220     		movs	r0, #2
 158 00bc FFF7FEFF 		bl	reverse_B_Write
 159              	.LVL20:
 160 00c0 02E0     		b	.L5
 161              	.L4:
  62:main.c        **** 		} else {
  63:main.c        **** 			reverse_B_Write(1);
 162              		.loc 1 63 0
 163 00c2 0120     		movs	r0, #1
 164 00c4 FFF7FEFF 		bl	reverse_B_Write
 165              	.LVL21:
ARM GAS  C:\Users\tetsuya\AppData\Local\Temp\cciQZLcF.s 			page 5


 166              	.L5:
  64:main.c        ****         }
  65:main.c        **** 		if (na[2]) {
 167              		.loc 1 65 0
 168 00c8 9DF88230 		ldrb	r3, [sp, #130]	@ zero_extendqisi2
 169 00cc 23B1     		cbz	r3, .L6
  66:main.c        **** 			reverse_C_Write(2);
 170              		.loc 1 66 0
 171 00ce 0220     		movs	r0, #2
 172 00d0 FFF7FEFF 		bl	reverse_C_Write
 173              	.LVL22:
 174              	.L8:
  23:main.c        ****  	PS3Controller ps3;
 175              		.loc 1 23 0 discriminator 1
 176 00d4 0023     		movs	r3, #0
 177 00d6 0CE0     		b	.L7
 178              	.L6:
  67:main.c        **** 		} else {
  68:main.c        **** 			reverse_C_Write(1);
 179              		.loc 1 68 0
 180 00d8 0120     		movs	r0, #1
 181 00da FFF7FEFF 		bl	reverse_C_Write
 182              	.LVL23:
 183 00de F9E7     		b	.L8
 184              	.LVL24:
 185              	.L9:
  69:main.c        ****         }
  70:main.c        **** /*
  71:main.c        **** 		for (i = 0; i < 3; i++) {
  72:main.c        **** 				m[i] *= MAX_POWER / (double)91 * (double)power;
  73:main.c        **** 		}
  74:main.c        ****   */     
  75:main.c        ****         for (i = 0; i < 3; i++) {
  76:main.c        **** 	        m[i] *= 2;
 186              		.loc 1 76 0 discriminator 3
 187 00e0 24AA     		add	r2, sp, #144
 188 00e2 D118     		adds	r1, r2, r3
 189 00e4 11F80C2C 		ldrb	r2, [r1, #-12]	@ zero_extendqisi2
 190 00e8 5200     		lsls	r2, r2, #1
 191 00ea 01F80C2C 		strb	r2, [r1, #-12]
  75:main.c        **** 	        m[i] *= 2;
 192              		.loc 1 75 0 discriminator 3
 193 00ee 0133     		adds	r3, r3, #1
 194              	.LVL25:
 195 00f0 DBB2     		uxtb	r3, r3
 196              	.LVL26:
 197              	.L7:
  75:main.c        **** 	        m[i] *= 2;
 198              		.loc 1 75 0 is_stmt 0 discriminator 1
 199 00f2 022B     		cmp	r3, #2
 200 00f4 F4D9     		bls	.L9
  77:main.c        **** 		}
  78:main.c        ****         
  79:main.c        ****         if (m[0] > MAX_POWER || m[1] > MAX_POWER || m[2] > MAX_POWER) {
 201              		.loc 1 79 0 is_stmt 1
 202 00f6 9DF88430 		ldrb	r3, [sp, #132]	@ zero_extendqisi2
 203              	.LVL27:
ARM GAS  C:\Users\tetsuya\AppData\Local\Temp\cciQZLcF.s 			page 6


 204 00fa E62B     		cmp	r3, #230
 205 00fc 07D8     		bhi	.L10
 206              		.loc 1 79 0 is_stmt 0 discriminator 1
 207 00fe 9DF88530 		ldrb	r3, [sp, #133]	@ zero_extendqisi2
 208 0102 E62B     		cmp	r3, #230
 209 0104 03D8     		bhi	.L10
 210              		.loc 1 79 0 discriminator 2
 211 0106 9DF88630 		ldrb	r3, [sp, #134]	@ zero_extendqisi2
 212 010a E62B     		cmp	r3, #230
 213 010c 06D9     		bls	.L11
 214              	.L10:
  80:main.c        ****             m[0] = 0;
 215              		.loc 1 80 0 is_stmt 1
 216 010e 0023     		movs	r3, #0
 217 0110 8DF88430 		strb	r3, [sp, #132]
  81:main.c        ****             m[1] = 0;
 218              		.loc 1 81 0
 219 0114 8DF88530 		strb	r3, [sp, #133]
  82:main.c        ****             m[2] = 0;
 220              		.loc 1 82 0
 221 0118 8DF88630 		strb	r3, [sp, #134]
 222              	.L11:
  83:main.c        ****         }
  84:main.c        ****         motorD_WriteCompare(m[0]);
 223              		.loc 1 84 0
 224 011c 9DF88400 		ldrb	r0, [sp, #132]	@ zero_extendqisi2
 225 0120 FFF7FEFF 		bl	motorD_WriteCompare
 226              	.LVL28:
  85:main.c        **** 		motorB_WriteCompare(m[1]);
 227              		.loc 1 85 0
 228 0124 9DF88500 		ldrb	r0, [sp, #133]	@ zero_extendqisi2
 229 0128 FFF7FEFF 		bl	motorB_WriteCompare
 230              	.LVL29:
  86:main.c        **** 		motorC_WriteCompare(m[2]);
 231              		.loc 1 86 0
 232 012c 9DF88600 		ldrb	r0, [sp, #134]	@ zero_extendqisi2
 233 0130 FFF7FEFF 		bl	motorC_WriteCompare
 234              	.LVL30:
  87:main.c        ****        
  88:main.c        ****         sprintf(output, "%f %f %f\n", m[0]/255.0, m[1]/255.0, m[2]/255.0);
 235              		.loc 1 88 0
 236 0134 9DF88560 		ldrb	r6, [sp, #133]	@ zero_extendqisi2
 237 0138 9DF88670 		ldrb	r7, [sp, #134]	@ zero_extendqisi2
 238 013c 9DF88400 		ldrb	r0, [sp, #132]	@ zero_extendqisi2
 239 0140 FFF7FEFF 		bl	__aeabi_i2d
 240              	.LVL31:
 241 0144 12A3     		adr	r3, .L14
 242 0146 D3E90023 		ldrd	r2, [r3]
 243 014a FFF7FEFF 		bl	__aeabi_ddiv
 244              	.LVL32:
 245 014e 0446     		mov	r4, r0
 246              	.LVL33:
 247 0150 0D46     		mov	r5, r1
 248 0152 3846     		mov	r0, r7
 249 0154 FFF7FEFF 		bl	__aeabi_i2d
 250              	.LVL34:
 251 0158 0DA3     		adr	r3, .L14
ARM GAS  C:\Users\tetsuya\AppData\Local\Temp\cciQZLcF.s 			page 7


 252 015a D3E90023 		ldrd	r2, [r3]
 253 015e FFF7FEFF 		bl	__aeabi_ddiv
 254              	.LVL35:
 255 0162 CDE90201 		strd	r0, [sp, #8]
 256 0166 3046     		mov	r0, r6
 257 0168 FFF7FEFF 		bl	__aeabi_i2d
 258              	.LVL36:
 259 016c 08A3     		adr	r3, .L14
 260 016e D3E90023 		ldrd	r2, [r3]
 261 0172 FFF7FEFF 		bl	__aeabi_ddiv
 262              	.LVL37:
 263 0176 CDE90001 		strd	r0, [sp]
 264 017a 2246     		mov	r2, r4
 265 017c 2B46     		mov	r3, r5
 266 017e 0649     		ldr	r1, .L14+8
 267 0180 07A8     		add	r0, sp, #28
 268 0182 FFF7FEFF 		bl	sprintf
 269              	.LVL38:
  89:main.c        ****         UART_1_PutString(output);
 270              		.loc 1 89 0
 271 0186 07A8     		add	r0, sp, #28
 272 0188 FFF7FEFF 		bl	UART_1_PutString
 273              	.LVL39:
  90:main.c        ****         
  91:main.c        ****         
  92:main.c        ****         /* Place your application code here. */
  93:main.c        ****     }
 274              		.loc 1 93 0
 275 018c 56E7     		b	.L12
 276              	.L15:
 277 018e 00BF     		.align	3
 278              	.L14:
 279 0190 00000000 		.word	0
 280 0194 00E06F40 		.word	1081073664
 281 0198 00000000 		.word	.LC0
 282              		.cfi_endproc
 283              	.LFE64:
 284              		.size	main, .-main
 285              		.section	.rodata.str1.4,"aMS",%progbits,1
 286              		.align	2
 287              	.LC0:
 288 0000 25662025 		.ascii	"%f %f %f\012\000"
 288      66202566 
 288      0A00
 289              		.text
 290              	.Letext0:
 291              		.file 2 "c:\\program files (x86)\\cypress\\psoc creator\\4.1\\psoc creator\\import\\gnu\\arm\\5.4.
 292              		.file 3 "c:\\program files (x86)\\cypress\\psoc creator\\4.1\\psoc creator\\import\\gnu\\arm\\5.4.
 293              		.file 4 "Generated_Source\\PSoC5/cytypes.h"
 294              		.file 5 "PS3_Controller.h"
 295              		.file 6 "Generated_Source\\PSoC5/motorD.h"
 296              		.file 7 "Generated_Source\\PSoC5/motorB.h"
 297              		.file 8 "Generated_Source\\PSoC5/motorC.h"
 298              		.file 9 "Generated_Source\\PSoC5/UART_1.h"
 299              		.file 10 "Generated_Source\\PSoC5/CyLib.h"
 300              		.file 11 "c:\\program files (x86)\\cypress\\psoc creator\\4.1\\psoc creator\\import\\gnu\\arm\\5.4
 301              		.file 12 "matrix.h"
ARM GAS  C:\Users\tetsuya\AppData\Local\Temp\cciQZLcF.s 			page 8


 302              		.file 13 "Generated_Source\\PSoC5/reverse_D.h"
 303              		.file 14 "Generated_Source\\PSoC5/reverse_B.h"
 304              		.file 15 "Generated_Source\\PSoC5/reverse_C.h"
 305              		.file 16 "c:\\program files (x86)\\cypress\\psoc creator\\4.1\\psoc creator\\import\\gnu\\arm\\5.4
 306              		.file 17 "Generated_Source\\PSoC5/core_cm3.h"