ARM GAS  C:\Users\tetsuya\AppData\Local\Temp\ccYYyeJZ.s 			page 1


   1              		.syntax unified
   2              		.cpu cortex-m3
   3              		.fpu softvfp
   4              		.eabi_attribute 20, 1
   5              		.eabi_attribute 21, 1
   6              		.eabi_attribute 23, 3
   7              		.eabi_attribute 24, 1
   8              		.eabi_attribute 25, 1
   9              		.eabi_attribute 26, 1
  10              		.eabi_attribute 30, 1
  11              		.eabi_attribute 34, 1
  12              		.eabi_attribute 18, 4
  13              		.thumb
  14              		.syntax unified
  15              		.file	"matrix.c"
  16              		.text
  17              	.Ltext0:
  18              		.cfi_sections	.debug_frame
  19              		.global	__aeabi_i2f
  20              		.global	__aeabi_f2d
  21              		.global	__aeabi_dmul
  22              		.global	__aeabi_dadd
  23              		.global	__aeabi_d2f
  24              		.global	__aeabi_fcmpge
  25              		.global	__aeabi_f2uiz
  26              		.section	.text.matrix,"ax",%progbits
  27              		.align	2
  28              		.global	matrix
  29              		.thumb
  30              		.thumb_func
  31              		.type	matrix, %function
  32              	matrix:
  33              	.LFB64:
  34              		.file 1 "matrix.c"
   1:matrix.c      **** #include "matrix.h"
   2:matrix.c      **** #include <math.h>
   3:matrix.c      **** #include <string.h>
   4:matrix.c      **** #include <stdio.h>
   5:matrix.c      **** #include "project.h"
   6:matrix.c      **** 
   7:matrix.c      **** void matrix(PS3Controller *ps3, uint8 motor[], char na[]) {
  35              		.loc 1 7 0
  36              		.cfi_startproc
  37              		@ args = 0, pretend = 0, frame = 200
  38              		@ frame_needed = 0, uses_anonymous_args = 0
  39              	.LVL0:
  40 0000 2DE9F047 		push	{r4, r5, r6, r7, r8, r9, r10, lr}
  41              		.cfi_def_cfa_offset 32
  42              		.cfi_offset 4, -32
  43              		.cfi_offset 5, -28
  44              		.cfi_offset 6, -24
  45              		.cfi_offset 7, -20
  46              		.cfi_offset 8, -16
  47              		.cfi_offset 9, -12
  48              		.cfi_offset 10, -8
  49              		.cfi_offset 14, -4
  50 0004 B4B0     		sub	sp, sp, #208
ARM GAS  C:\Users\tetsuya\AppData\Local\Temp\ccYYyeJZ.s 			page 2


  51              		.cfi_def_cfa_offset 240
  52 0006 0646     		mov	r6, r0
  53 0008 0C46     		mov	r4, r1
  54 000a 1546     		mov	r5, r2
  55              	.LVL1:
   8:matrix.c      **** 	int i, j;
   9:matrix.c      **** 	float L = 176;
  10:matrix.c      ****     char output[100] = {0};
  56              		.loc 1 10 0
  57 000c 6422     		movs	r2, #100
  58              	.LVL2:
  59 000e 0021     		movs	r1, #0
  60              	.LVL3:
  61 0010 1BA8     		add	r0, sp, #108
  62              	.LVL4:
  63 0012 FFF7FEFF 		bl	memset
  64              	.LVL5:
  11:matrix.c      **** 	//double m[3] = {0}
  12:matrix.c      ****     
  13:matrix.c      **** 	double mat[3][3] = {{1.0, 0.0, L}, 
  65              		.loc 1 13 0
  66 0016 0022     		movs	r2, #0
  67 0018 454B     		ldr	r3, .L14+16
  68 001a CDE90823 		strd	r2, [sp, #32]
  69 001e 0022     		movs	r2, #0
  70 0020 0023     		movs	r3, #0
  71 0022 CDE90A23 		strd	r2, [sp, #40]
  72 0026 0022     		movs	r2, #0
  73 0028 424B     		ldr	r3, .L14+20
  74 002a CDE90C23 		strd	r2, [sp, #48]
  75 002e 0020     		movs	r0, #0
  76 0030 4149     		ldr	r1, .L14+24
  77 0032 CDE90E01 		strd	r0, [sp, #56]
  78 0036 0FF2E809 		adr	r9, .L14
  79 003a D9E90089 		ldrd	r8, [r9]
  80 003e CDE91089 		strd	r8, [sp, #64]
  81 0042 CDE91223 		strd	r2, [sp, #72]
  82 0046 CDE91401 		strd	r0, [sp, #80]
  83 004a 37A1     		adr	r1, .L14+8
  84 004c D1E90001 		ldrd	r0, [r1]
  85 0050 CDE91601 		strd	r0, [sp, #88]
  86 0054 CDE91823 		strd	r2, [sp, #96]
  14:matrix.c      **** 					  {-1.0/2, sqrt(3.0/2), L}, 
  15:matrix.c      **** 					  {-1.0/2, -sqrt(3.0/2), L}};
  16:matrix.c      ****     
  17:matrix.c      **** 	float x = ps3->ANALOG_LX - 64;
  87              		.loc 1 17 0
  88 0058 3079     		ldrb	r0, [r6, #4]	@ zero_extendqisi2
  89 005a 4038     		subs	r0, r0, #64
  90 005c FFF7FEFF 		bl	__aeabi_i2f
  91              	.LVL6:
  92 0060 0746     		mov	r7, r0
  93              	.LVL7:
  18:matrix.c      **** 	float y = ps3->ANALOG_LY - 64;
  94              		.loc 1 18 0
  95 0062 7079     		ldrb	r0, [r6, #5]	@ zero_extendqisi2
  96              	.LVL8:
ARM GAS  C:\Users\tetsuya\AppData\Local\Temp\ccYYyeJZ.s 			page 3


  97 0064 4038     		subs	r0, r0, #64
  98 0066 FFF7FEFF 		bl	__aeabi_i2f
  99              	.LVL9:
  19:matrix.c      ****     float max = fmaxf(fabsf(x), fabsf(y));
  20:matrix.c      ****     if (max == 0)
  21:matrix.c      ****         max = 1;
  22:matrix.c      **** 	float col[3] = {x, y, 0};
 100              		.loc 1 22 0
 101 006a 0597     		str	r7, [sp, #20]	@ float
 102 006c 0690     		str	r0, [sp, #24]	@ float
 103 006e 0023     		movs	r3, #0
 104 0070 0793     		str	r3, [sp, #28]	@ float
  23:matrix.c      ****    
  24:matrix.c      **** 	float re[3] = {0};
 105              		.loc 1 24 0
 106 0072 0027     		movs	r7, #0
 107              	.LVL10:
 108 0074 0297     		str	r7, [sp, #8]
 109 0076 0397     		str	r7, [sp, #12]
 110 0078 0497     		str	r7, [sp, #16]
 111              	.LVL11:
  25:matrix.c      **** 	for (i = 0; i < 3; i++) {
 112              		.loc 1 25 0
 113 007a 28E0     		b	.L2
 114              	.LVL12:
 115              	.L3:
  26:matrix.c      **** 		for (j = 0; j < 3; j++) {
  27:matrix.c      **** 			re[i] += mat[i][j] * col[j];
 116              		.loc 1 27 0 discriminator 3
 117 007c 07EB4703 		add	r3, r7, r7, lsl #1
 118 0080 3344     		add	r3, r3, r6
 119 0082 34AA     		add	r2, sp, #208
 120 0084 02EBC303 		add	r3, r2, r3, lsl #3
 121 0088 53E92C89 		ldrd	r8, [r3, #-176]
 122 008c 02EB8603 		add	r3, r2, r6, lsl #2
 123 0090 53F8BC0C 		ldr	r0, [r3, #-188]	@ float
 124 0094 FFF7FEFF 		bl	__aeabi_f2d
 125              	.LVL13:
 126 0098 4246     		mov	r2, r8
 127 009a 4B46     		mov	r3, r9
 128 009c FFF7FEFF 		bl	__aeabi_dmul
 129              	.LVL14:
 130 00a0 8046     		mov	r8, r0
 131 00a2 8946     		mov	r9, r1
 132 00a4 34AB     		add	r3, sp, #208
 133 00a6 03EB870A 		add	r10, r3, r7, lsl #2
 134 00aa 5AF8C80C 		ldr	r0, [r10, #-200]	@ float
 135 00ae FFF7FEFF 		bl	__aeabi_f2d
 136              	.LVL15:
 137 00b2 4246     		mov	r2, r8
 138 00b4 4B46     		mov	r3, r9
 139 00b6 FFF7FEFF 		bl	__aeabi_dadd
 140              	.LVL16:
 141 00ba FFF7FEFF 		bl	__aeabi_d2f
 142              	.LVL17:
 143 00be 4AF8C80C 		str	r0, [r10, #-200]	@ float
  26:matrix.c      **** 		for (j = 0; j < 3; j++) {
ARM GAS  C:\Users\tetsuya\AppData\Local\Temp\ccYYyeJZ.s 			page 4


 144              		.loc 1 26 0 discriminator 3
 145 00c2 0136     		adds	r6, r6, #1
 146              	.LVL18:
 147 00c4 00E0     		b	.L4
 148              	.LVL19:
 149              	.L10:
 150 00c6 0026     		movs	r6, #0
 151              	.L4:
 152              	.LVL20:
  26:matrix.c      **** 		for (j = 0; j < 3; j++) {
 153              		.loc 1 26 0 is_stmt 0 discriminator 1
 154 00c8 022E     		cmp	r6, #2
 155 00ca D7DD     		ble	.L3
  25:matrix.c      **** 	for (i = 0; i < 3; i++) {
 156              		.loc 1 25 0 is_stmt 1 discriminator 2
 157 00cc 0137     		adds	r7, r7, #1
 158              	.LVL21:
 159              	.L2:
  25:matrix.c      **** 	for (i = 0; i < 3; i++) {
 160              		.loc 1 25 0 is_stmt 0 discriminator 1
 161 00ce 022F     		cmp	r7, #2
 162 00d0 F9DD     		ble	.L10
 163 00d2 0026     		movs	r6, #0
 164 00d4 14E0     		b	.L5
 165              	.LVL22:
 166              	.L9:
  28:matrix.c      **** 		}
  29:matrix.c      ****         
  30:matrix.c      **** 	}
  31:matrix.c      ****     //sprintf(output, "%s ", "\n\n");
  32:matrix.c      ****     //sprintf(output, "%f %f %f\n", re[0], re[1], re[2]);
  33:matrix.c      ****     //UART_1_PutString(output);
  34:matrix.c      ****     
  35:matrix.c      **** 	for (i = 0; i < 3; i++) {
  36:matrix.c      ****         if (re[i] >=0)
 167              		.loc 1 36 0 is_stmt 1
 168 00d6 34AB     		add	r3, sp, #208
 169 00d8 03EB8603 		add	r3, r3, r6, lsl #2
 170 00dc 53F8C87C 		ldr	r7, [r3, #-200]	@ float
 171 00e0 0021     		movs	r1, #0
 172 00e2 3846     		mov	r0, r7
 173 00e4 FFF7FEFF 		bl	__aeabi_fcmpge
 174              	.LVL23:
 175 00e8 10B1     		cbz	r0, .L12
  37:matrix.c      ****             na[i] = 1;
 176              		.loc 1 37 0
 177 00ea 0123     		movs	r3, #1
 178 00ec AB55     		strb	r3, [r5, r6]
 179 00ee 01E0     		b	.L8
 180              	.L12:
  38:matrix.c      ****         else
  39:matrix.c      ****             na[i] = 0;
 181              		.loc 1 39 0
 182 00f0 0023     		movs	r3, #0
 183 00f2 AB55     		strb	r3, [r5, r6]
 184              	.L8:
  40:matrix.c      **** 		motor[i] = fabsf(re[i]);
ARM GAS  C:\Users\tetsuya\AppData\Local\Temp\ccYYyeJZ.s 			page 5


 185              		.loc 1 40 0 discriminator 2
 186 00f4 27F00040 		bic	r0, r7, #-2147483648
 187 00f8 FFF7FEFF 		bl	__aeabi_f2uiz
 188              	.LVL24:
 189 00fc A055     		strb	r0, [r4, r6]
  35:matrix.c      ****         if (re[i] >=0)
 190              		.loc 1 35 0 discriminator 2
 191 00fe 0136     		adds	r6, r6, #1
 192              	.LVL25:
 193              	.L5:
  35:matrix.c      ****         if (re[i] >=0)
 194              		.loc 1 35 0 is_stmt 0 discriminator 1
 195 0100 022E     		cmp	r6, #2
 196 0102 E8DD     		ble	.L9
  41:matrix.c      **** 	}
  42:matrix.c      ****    
  43:matrix.c      ****     sprintf(output, "%d %d %d\n", motor[0], motor[1], motor[2]);
 197              		.loc 1 43 0 is_stmt 1
 198 0104 2278     		ldrb	r2, [r4]	@ zero_extendqisi2
 199 0106 6378     		ldrb	r3, [r4, #1]	@ zero_extendqisi2
 200 0108 A178     		ldrb	r1, [r4, #2]	@ zero_extendqisi2
 201 010a 0091     		str	r1, [sp]
 202 010c 0B49     		ldr	r1, .L14+28
 203 010e 1BA8     		add	r0, sp, #108
 204 0110 FFF7FEFF 		bl	sprintf
 205              	.LVL26:
  44:matrix.c      ****     UART_1_PutString(output);
 206              		.loc 1 44 0
 207 0114 1BA8     		add	r0, sp, #108
 208 0116 FFF7FEFF 		bl	UART_1_PutString
 209              	.LVL27:
  45:matrix.c      **** }
 210              		.loc 1 45 0
 211 011a 34B0     		add	sp, sp, #208
 212              		.cfi_def_cfa_offset 32
 213              		@ sp needed
 214 011c BDE8F087 		pop	{r4, r5, r6, r7, r8, r9, r10, pc}
 215              	.LVL28:
 216              	.L15:
 217              		.align	3
 218              	.L14:
 219 0120 2E210914 		.word	336142638
 220 0124 8E98F33F 		.word	1072928910
 221 0128 2E210914 		.word	336142638
 222 012c 8E98F3BF 		.word	-1074554738
 223 0130 0000F03F 		.word	1072693248
 224 0134 00006640 		.word	1080426496
 225 0138 0000E0BF 		.word	-1075838976
 226 013c 00000000 		.word	.LC0
 227              		.cfi_endproc
 228              	.LFE64:
 229              		.size	matrix, .-matrix
 230              		.section	.rodata.str1.4,"aMS",%progbits,1
 231              		.align	2
 232              	.LC0:
 233 0000 25642025 		.ascii	"%d %d %d\012\000"
 233      64202564 
ARM GAS  C:\Users\tetsuya\AppData\Local\Temp\ccYYyeJZ.s 			page 6


 233      0A00
 234              		.text
 235              	.Letext0:
 236              		.file 2 "c:\\program files (x86)\\cypress\\psoc creator\\4.1\\psoc creator\\import\\gnu\\arm\\5.4.
 237              		.file 3 "c:\\program files (x86)\\cypress\\psoc creator\\4.1\\psoc creator\\import\\gnu\\arm\\5.4.
 238              		.file 4 "Generated_Source\\PSoC5/cytypes.h"
 239              		.file 5 "PS3_Controller.h"
 240              		.file 6 "c:\\program files (x86)\\cypress\\psoc creator\\4.1\\psoc creator\\import\\gnu\\arm\\5.4.
 241              		.file 7 "Generated_Source\\PSoC5/UART_1.h"
 242              		.file 8 "Generated_Source\\PSoC5/core_cm3.h"