ARM GAS  C:\Users\tetsuya\AppData\Local\Temp\ccnizPuX.s 			page 1


   1              		.syntax unified
   2              		.cpu cortex-m3
   3              		.fpu softvfp
   4              		.eabi_attribute 20, 1
   5              		.eabi_attribute 21, 1
   6              		.eabi_attribute 23, 3
   7              		.eabi_attribute 24, 1
   8              		.eabi_attribute 25, 1
   9              		.eabi_attribute 26, 1
  10              		.eabi_attribute 30, 1
  11              		.eabi_attribute 34, 1
  12              		.eabi_attribute 18, 4
  13              		.thumb
  14              		.syntax unified
  15              		.file	"PS3_Controller.c"
  16              		.text
  17              	.Ltext0:
  18              		.cfi_sections	.debug_frame
  19              		.section	.text.ISR_PS3,"ax",%progbits
  20              		.align	2
  21              		.global	ISR_PS3
  22              		.thumb
  23              		.thumb_func
  24              		.type	ISR_PS3, %function
  25              	ISR_PS3:
  26              	.LFB63:
  27              		.file 1 "PS3_Controller.c"
   1:PS3_Controller.c **** #include <project.h>
   2:PS3_Controller.c **** #include "PS3_Controller.h"
   3:PS3_Controller.c **** 
   4:PS3_Controller.c **** int8   count = -1;
   5:PS3_Controller.c **** uint8  rx = 0;
   6:PS3_Controller.c **** uint8  rxdata[6] = {0};
   7:PS3_Controller.c **** uint16 sum = 0;
   8:PS3_Controller.c **** 
   9:PS3_Controller.c **** PS3Controller PS3_temp;
  10:PS3_Controller.c **** 
  11:PS3_Controller.c **** CY_ISR(ISR_PS3)
  12:PS3_Controller.c **** {
  28              		.loc 1 12 0
  29              		.cfi_startproc
  30              		@ args = 0, pretend = 0, frame = 8
  31              		@ frame_needed = 0, uses_anonymous_args = 0
  32 0000 00B5     		push	{lr}
  33              		.cfi_def_cfa_offset 4
  34              		.cfi_offset 14, -4
  35 0002 83B0     		sub	sp, sp, #12
  36              		.cfi_def_cfa_offset 16
  13:PS3_Controller.c **** 	PS3Controller ps3rxdata;
  14:PS3_Controller.c ****     rx = UART_PS3_GetByte();   
  37              		.loc 1 14 0
  38 0004 FFF7FEFF 		bl	UART_PS3_GetByte
  39              	.LVL0:
  40 0008 C0B2     		uxtb	r0, r0
  41 000a 564B     		ldr	r3, .L11
  42 000c 1870     		strb	r0, [r3]
  15:PS3_Controller.c **** 	if(count==-1)
ARM GAS  C:\Users\tetsuya\AppData\Local\Temp\ccnizPuX.s 			page 2


  43              		.loc 1 15 0
  44 000e 564B     		ldr	r3, .L11+4
  45 0010 93F90030 		ldrsb	r3, [r3]
  46 0014 B3F1FF3F 		cmp	r3, #-1
  47 0018 08D1     		bne	.L2
  16:PS3_Controller.c ****     {
  17:PS3_Controller.c **** 		if(rx==0x80)
  48              		.loc 1 17 0
  49 001a 8028     		cmp	r0, #128
  50 001c 40F09E80 		bne	.L1
  18:PS3_Controller.c ****         {
  19:PS3_Controller.c ****             sum=0;
  51              		.loc 1 19 0
  52 0020 0023     		movs	r3, #0
  53 0022 504A     		ldr	r2, .L11
  54 0024 5380     		strh	r3, [r2, #2]	@ movhi
  20:PS3_Controller.c **** 			count=0;
  55              		.loc 1 20 0
  56 0026 504A     		ldr	r2, .L11+4
  57 0028 1370     		strb	r3, [r2]
  58 002a 97E0     		b	.L1
  59              	.L2:
  21:PS3_Controller.c **** 		}
  22:PS3_Controller.c **** 	}
  23:PS3_Controller.c **** 	else if(count==6)
  60              		.loc 1 23 0
  61 002c 062B     		cmp	r3, #6
  62 002e 40F08C80 		bne	.L4
  24:PS3_Controller.c ****     {
  25:PS3_Controller.c **** 		if(rx==(uint8)(sum&0x7F))
  63              		.loc 1 25 0
  64 0032 4C4B     		ldr	r3, .L11
  65 0034 9B78     		ldrb	r3, [r3, #2]	@ zero_extendqisi2
  66 0036 03F07F03 		and	r3, r3, #127
  67 003a 9842     		cmp	r0, r3
  68 003c 7ED1     		bne	.L5
  26:PS3_Controller.c ****         {
  27:PS3_Controller.c **** 			ps3rxdata.SQUARE=rxdata[0]&0x1;
  69              		.loc 1 27 0
  70 003e 4948     		ldr	r0, .L11
  71 0040 0379     		ldrb	r3, [r0, #4]	@ zero_extendqisi2
  72 0042 9DF80120 		ldrb	r2, [sp, #1]	@ zero_extendqisi2
  73 0046 63F34512 		bfi	r2, r3, #5, #1
  28:PS3_Controller.c **** 			rxdata[0]>>=1;
  74              		.loc 1 28 0
  75 004a 5B08     		lsrs	r3, r3, #1
  29:PS3_Controller.c **** 			ps3rxdata.L1=rxdata[0]&0x1;
  76              		.loc 1 29 0
  77 004c 63F30002 		bfi	r2, r3, #0, #1
  30:PS3_Controller.c **** 			rxdata[0]>>=1;
  78              		.loc 1 30 0
  79 0050 5B08     		lsrs	r3, r3, #1
  31:PS3_Controller.c **** 			ps3rxdata.L2=rxdata[0]&0x1;
  80              		.loc 1 31 0
  81 0052 9DF80010 		ldrb	r1, [sp]	@ zero_extendqisi2
  82 0056 63F38611 		bfi	r1, r3, #6, #1
  32:PS3_Controller.c **** 			rxdata[0]>>=1;
ARM GAS  C:\Users\tetsuya\AppData\Local\Temp\ccnizPuX.s 			page 3


  83              		.loc 1 32 0
  84 005a 5B08     		lsrs	r3, r3, #1
  33:PS3_Controller.c **** 			ps3rxdata.R1=rxdata[0]&0x1;
  85              		.loc 1 33 0
  86 005c 63F34102 		bfi	r2, r3, #1, #1
  87 0060 8DF80120 		strb	r2, [sp, #1]
  34:PS3_Controller.c **** 			rxdata[0]>>=1;
  88              		.loc 1 34 0
  89 0064 5B08     		lsrs	r3, r3, #1
  90 0066 0371     		strb	r3, [r0, #4]
  35:PS3_Controller.c **** 			ps3rxdata.R2=rxdata[0]&0x1;
  91              		.loc 1 35 0
  92 0068 0A46     		mov	r2, r1
  93 006a 63F3C712 		bfi	r2, r3, #7, #1
  94 006e 8DF80020 		strb	r2, [sp]
  36:PS3_Controller.c ****             
  37:PS3_Controller.c **** 			if((rxdata[1]&0x03)==0x3)
  95              		.loc 1 37 0
  96 0072 4379     		ldrb	r3, [r0, #5]	@ zero_extendqisi2
  97 0074 03F00302 		and	r2, r3, #3
  98 0078 032A     		cmp	r2, #3
  99 007a 08D1     		bne	.L6
  38:PS3_Controller.c ****             {
  39:PS3_Controller.c **** 				ps3rxdata.START=1;
 100              		.loc 1 39 0
 101 007c 9DF80020 		ldrb	r2, [sp]	@ zero_extendqisi2
 102 0080 42F00202 		orr	r2, r2, #2
 103 0084 8DF80020 		strb	r2, [sp]
  40:PS3_Controller.c ****  				rxdata[1]>>=2;
 104              		.loc 1 40 0
 105 0088 9B08     		lsrs	r3, r3, #2
 106 008a 4371     		strb	r3, [r0, #5]
 107 008c 0DE0     		b	.L7
 108              	.L6:
  41:PS3_Controller.c ****             }
  42:PS3_Controller.c ****             else
  43:PS3_Controller.c ****             {
  44:PS3_Controller.c ****                 ps3rxdata.START=0;
 109              		.loc 1 44 0
 110 008e 9DF80020 		ldrb	r2, [sp]	@ zero_extendqisi2
  45:PS3_Controller.c ****                 ps3rxdata.UP=rxdata[1]&0x1;
 111              		.loc 1 45 0
 112 0092 02F0FD02 		and	r2, r2, #253
 113 0096 63F38202 		bfi	r2, r3, #2, #1
  46:PS3_Controller.c **** 		    	rxdata[1]>>=1;
 114              		.loc 1 46 0
 115 009a 5B08     		lsrs	r3, r3, #1
  47:PS3_Controller.c **** 			    ps3rxdata.DOWN=rxdata[1]&0x1;
 116              		.loc 1 47 0
 117 009c 63F30412 		bfi	r2, r3, #4, #1
 118 00a0 8DF80020 		strb	r2, [sp]
  48:PS3_Controller.c **** 		    	rxdata[1]>>=1;
 119              		.loc 1 48 0
 120 00a4 5B08     		lsrs	r3, r3, #1
 121 00a6 2F4A     		ldr	r2, .L11
 122 00a8 5371     		strb	r3, [r2, #5]
 123              	.L7:
ARM GAS  C:\Users\tetsuya\AppData\Local\Temp\ccnizPuX.s 			page 4


  49:PS3_Controller.c ****             }
  50:PS3_Controller.c **** 			if((rxdata[1]&0x03)==0x3)
 124              		.loc 1 50 0
 125 00aa 2E4B     		ldr	r3, .L11
 126 00ac 5B79     		ldrb	r3, [r3, #5]	@ zero_extendqisi2
 127 00ae 03F00302 		and	r2, r3, #3
 128 00b2 032A     		cmp	r2, #3
 129 00b4 09D1     		bne	.L8
  51:PS3_Controller.c ****             {
  52:PS3_Controller.c **** 				ps3rxdata.SELECT=1;
 130              		.loc 1 52 0
 131 00b6 9DF80020 		ldrb	r2, [sp]	@ zero_extendqisi2
 132 00ba 42F00102 		orr	r2, r2, #1
 133 00be 8DF80020 		strb	r2, [sp]
  53:PS3_Controller.c ****                 rxdata[1]>>=2;
 134              		.loc 1 53 0
 135 00c2 9B08     		lsrs	r3, r3, #2
 136 00c4 274A     		ldr	r2, .L11
 137 00c6 5371     		strb	r3, [r2, #5]
 138 00c8 0EE0     		b	.L9
 139              	.L8:
  54:PS3_Controller.c ****             }
  55:PS3_Controller.c **** 			else
  56:PS3_Controller.c ****             {
  57:PS3_Controller.c **** 				ps3rxdata.RIGHT=rxdata[1]&0x1;
 140              		.loc 1 57 0
 141 00ca 9DF80020 		ldrb	r2, [sp]	@ zero_extendqisi2
 142 00ce 63F3C302 		bfi	r2, r3, #3, #1
  58:PS3_Controller.c **** 				rxdata[1]>>=1;
 143              		.loc 1 58 0
 144 00d2 5B08     		lsrs	r3, r3, #1
  59:PS3_Controller.c **** 				ps3rxdata.LEFT=rxdata[1]&0x1;
 145              		.loc 1 59 0
 146 00d4 63F34512 		bfi	r2, r3, #5, #1
  60:PS3_Controller.c **** 				rxdata[1]>>=1;
 147              		.loc 1 60 0
 148 00d8 5B08     		lsrs	r3, r3, #1
 149 00da 2249     		ldr	r1, .L11
 150 00dc 4B71     		strb	r3, [r1, #5]
  61:PS3_Controller.c ****                 ps3rxdata.SELECT=0;
 151              		.loc 1 61 0
 152 00de 1346     		mov	r3, r2
 153 00e0 6FF30003 		bfc	r3, #0, #1
 154 00e4 8DF80030 		strb	r3, [sp]
 155              	.L9:
  62:PS3_Controller.c **** 			}
  63:PS3_Controller.c ****             
  64:PS3_Controller.c **** 			ps3rxdata.TRIANGLE=rxdata[1]&0x1;
 156              		.loc 1 64 0
 157 00e8 1E49     		ldr	r1, .L11
 158 00ea 4A79     		ldrb	r2, [r1, #5]	@ zero_extendqisi2
 159 00ec 9DF80130 		ldrb	r3, [sp, #1]	@ zero_extendqisi2
 160 00f0 62F38203 		bfi	r3, r2, #2, #1
  65:PS3_Controller.c **** 			rxdata[1]>>=1;
 161              		.loc 1 65 0
 162 00f4 5208     		lsrs	r2, r2, #1
  66:PS3_Controller.c **** 			ps3rxdata.CROSS=rxdata[1]&0x1;
ARM GAS  C:\Users\tetsuya\AppData\Local\Temp\ccnizPuX.s 			page 5


 163              		.loc 1 66 0
 164 00f6 62F30413 		bfi	r3, r2, #4, #1
  67:PS3_Controller.c **** 			rxdata[1]>>=1;
 165              		.loc 1 67 0
 166 00fa 5208     		lsrs	r2, r2, #1
 167 00fc 4A71     		strb	r2, [r1, #5]
  68:PS3_Controller.c **** 			ps3rxdata.CIRCLE=rxdata[1]&0x1;
 168              		.loc 1 68 0
 169 00fe 62F3C303 		bfi	r3, r2, #3, #1
 170 0102 8DF80130 		strb	r3, [sp, #1]
  69:PS3_Controller.c ****             
  70:PS3_Controller.c **** 			ps3rxdata.ANALOG_LX=rxdata[2]&0x7f;
 171              		.loc 1 70 0
 172 0106 8B79     		ldrb	r3, [r1, #6]	@ zero_extendqisi2
 173 0108 03F07F03 		and	r3, r3, #127
 174 010c 8DF80430 		strb	r3, [sp, #4]
  71:PS3_Controller.c **** 			ps3rxdata.ANALOG_LY=rxdata[3]&0x7f;
 175              		.loc 1 71 0
 176 0110 CB79     		ldrb	r3, [r1, #7]	@ zero_extendqisi2
 177 0112 03F07F03 		and	r3, r3, #127
 178 0116 8DF80530 		strb	r3, [sp, #5]
  72:PS3_Controller.c **** 			ps3rxdata.ANALOG_RX=rxdata[4]&0x7f;
 179              		.loc 1 72 0
 180 011a 0B7A     		ldrb	r3, [r1, #8]	@ zero_extendqisi2
 181 011c 03F07F03 		and	r3, r3, #127
 182 0120 8DF80230 		strb	r3, [sp, #2]
  73:PS3_Controller.c **** 			ps3rxdata.ANALOG_RY=rxdata[5]&0x7f;
 183              		.loc 1 73 0
 184 0124 4B7A     		ldrb	r3, [r1, #9]	@ zero_extendqisi2
 185 0126 03F07F03 		and	r3, r3, #127
 186 012a 8DF80330 		strb	r3, [sp, #3]
  74:PS3_Controller.c **** 			
  75:PS3_Controller.c **** 			PS3_temp=ps3rxdata;
 187              		.loc 1 75 0
 188 012e 0F4A     		ldr	r2, .L11+8
 189 0130 02AB     		add	r3, sp, #8
 190 0132 53F8080D 		ldr	r0, [r3, #-8]!	@ unaligned
 191 0136 1060     		str	r0, [r2]	@ unaligned
 192 0138 9B88     		ldrh	r3, [r3, #4]	@ unaligned
 193 013a 9380     		strh	r3, [r2, #4]	@ unaligned
 194              	.L5:
  76:PS3_Controller.c **** 		
  77:PS3_Controller.c **** 		}
  78:PS3_Controller.c **** 		count=-1;
 195              		.loc 1 78 0
 196 013c FF22     		movs	r2, #255
 197 013e 0A4B     		ldr	r3, .L11+4
 198 0140 1A70     		strb	r2, [r3]
  79:PS3_Controller.c **** 		sum=0;
 199              		.loc 1 79 0
 200 0142 0022     		movs	r2, #0
 201 0144 074B     		ldr	r3, .L11
 202 0146 5A80     		strh	r2, [r3, #2]	@ movhi
 203 0148 08E0     		b	.L1
 204              	.L4:
  80:PS3_Controller.c **** 	}
  81:PS3_Controller.c **** 	else
ARM GAS  C:\Users\tetsuya\AppData\Local\Temp\ccnizPuX.s 			page 6


  82:PS3_Controller.c ****     {
  83:PS3_Controller.c **** 		rxdata[count++]=rx;
 205              		.loc 1 83 0
 206 014a 591C     		adds	r1, r3, #1
 207 014c 064A     		ldr	r2, .L11+4
 208 014e 1170     		strb	r1, [r2]
 209 0150 044A     		ldr	r2, .L11
 210 0152 1344     		add	r3, r3, r2
 211 0154 1871     		strb	r0, [r3, #4]
  84:PS3_Controller.c **** 		sum+=rx;
 212              		.loc 1 84 0
 213 0156 5388     		ldrh	r3, [r2, #2]
 214 0158 1844     		add	r0, r0, r3
 215 015a 5080     		strh	r0, [r2, #2]	@ movhi
 216              	.L1:
  85:PS3_Controller.c **** 	}
  86:PS3_Controller.c **** }
 217              		.loc 1 86 0
 218 015c 03B0     		add	sp, sp, #12
 219              		.cfi_def_cfa_offset 4
 220              		@ sp needed
 221 015e 5DF804FB 		ldr	pc, [sp], #4
 222              	.L12:
 223 0162 00BF     		.align	2
 224              	.L11:
 225 0164 00000000 		.word	.LANCHOR0
 226 0168 00000000 		.word	.LANCHOR1
 227 016c 00000000 		.word	PS3_temp
 228              		.cfi_endproc
 229              	.LFE63:
 230              		.size	ISR_PS3, .-ISR_PS3
 231              		.section	.text.PS3_Start,"ax",%progbits
 232              		.align	2
 233              		.global	PS3_Start
 234              		.thumb
 235              		.thumb_func
 236              		.type	PS3_Start, %function
 237              	PS3_Start:
 238              	.LFB64:
  87:PS3_Controller.c **** 
  88:PS3_Controller.c **** void PS3_Start(void)
  89:PS3_Controller.c **** {
 239              		.loc 1 89 0
 240              		.cfi_startproc
 241              		@ args = 0, pretend = 0, frame = 0
 242              		@ frame_needed = 0, uses_anonymous_args = 0
 243 0000 08B5     		push	{r3, lr}
 244              		.cfi_def_cfa_offset 8
 245              		.cfi_offset 3, -8
 246              		.cfi_offset 14, -4
  90:PS3_Controller.c **** 	UART_PS3_Start();
 247              		.loc 1 90 0
 248 0002 FFF7FEFF 		bl	UART_PS3_Start
 249              	.LVL1:
  91:PS3_Controller.c **** 	UART_PS3_ClearRxBuffer();
 250              		.loc 1 91 0
 251 0006 FFF7FEFF 		bl	UART_PS3_ClearRxBuffer
ARM GAS  C:\Users\tetsuya\AppData\Local\Temp\ccnizPuX.s 			page 7


 252              	.LVL2:
  92:PS3_Controller.c **** 	ISR_PS3_StartEx(ISR_PS3);
 253              		.loc 1 92 0
 254 000a 0348     		ldr	r0, .L15
 255 000c FFF7FEFF 		bl	ISR_PS3_StartEx
 256              	.LVL3:
  93:PS3_Controller.c **** 	ISR_PS3_Enable();
 257              		.loc 1 93 0
 258 0010 FFF7FEFF 		bl	ISR_PS3_Enable
 259              	.LVL4:
 260 0014 08BD     		pop	{r3, pc}
 261              	.L16:
 262 0016 00BF     		.align	2
 263              	.L15:
 264 0018 00000000 		.word	ISR_PS3
 265              		.cfi_endproc
 266              	.LFE64:
 267              		.size	PS3_Start, .-PS3_Start
 268              		.section	.text.PS3_Stop,"ax",%progbits
 269              		.align	2
 270              		.global	PS3_Stop
 271              		.thumb
 272              		.thumb_func
 273              		.type	PS3_Stop, %function
 274              	PS3_Stop:
 275              	.LFB65:
  94:PS3_Controller.c **** }
  95:PS3_Controller.c **** 
  96:PS3_Controller.c **** void PS3_Stop(void)
  97:PS3_Controller.c **** {
 276              		.loc 1 97 0
 277              		.cfi_startproc
 278              		@ args = 0, pretend = 0, frame = 0
 279              		@ frame_needed = 0, uses_anonymous_args = 0
 280 0000 08B5     		push	{r3, lr}
 281              		.cfi_def_cfa_offset 8
 282              		.cfi_offset 3, -8
 283              		.cfi_offset 14, -4
  98:PS3_Controller.c **** 	UART_PS3_Stop();
 284              		.loc 1 98 0
 285 0002 FFF7FEFF 		bl	UART_PS3_Stop
 286              	.LVL5:
  99:PS3_Controller.c **** 	ISR_PS3_Disable();
 287              		.loc 1 99 0
 288 0006 FFF7FEFF 		bl	ISR_PS3_Disable
 289              	.LVL6:
 290 000a 08BD     		pop	{r3, pc}
 291              		.cfi_endproc
 292              	.LFE65:
 293              		.size	PS3_Stop, .-PS3_Stop
 294              		.section	.text.PS3_Controller_get,"ax",%progbits
 295              		.align	2
 296              		.global	PS3_Controller_get
 297              		.thumb
 298              		.thumb_func
 299              		.type	PS3_Controller_get, %function
 300              	PS3_Controller_get:
ARM GAS  C:\Users\tetsuya\AppData\Local\Temp\ccnizPuX.s 			page 8


 301              	.LFB66:
 100:PS3_Controller.c **** }
 101:PS3_Controller.c **** 
 102:PS3_Controller.c **** PS3Controller PS3_Controller_get()
 103:PS3_Controller.c **** {
 302              		.loc 1 103 0
 303              		.cfi_startproc
 304              		@ args = 0, pretend = 0, frame = 0
 305              		@ frame_needed = 0, uses_anonymous_args = 0
 306              		@ link register save eliminated.
 307              	.LVL7:
 104:PS3_Controller.c **** 	return PS3_temp;
 308              		.loc 1 104 0
 309 0000 024A     		ldr	r2, .L20
 310 0002 1168     		ldr	r1, [r2]	@ unaligned
 311 0004 0160     		str	r1, [r0]	@ unaligned
 312 0006 9288     		ldrh	r2, [r2, #4]	@ unaligned
 313 0008 8280     		strh	r2, [r0, #4]	@ unaligned
 105:PS3_Controller.c **** }
 314              		.loc 1 105 0
 315 000a 7047     		bx	lr
 316              	.L21:
 317              		.align	2
 318              	.L20:
 319 000c 00000000 		.word	PS3_temp
 320              		.cfi_endproc
 321              	.LFE66:
 322              		.size	PS3_Controller_get, .-PS3_Controller_get
 323              		.comm	PS3_temp,6,4
 324              		.global	sum
 325              		.global	rxdata
 326              		.global	rx
 327              		.global	count
 328              		.data
 329              		.set	.LANCHOR1,. + 0
 330              		.type	count, %object
 331              		.size	count, 1
 332              	count:
 333 0000 FF       		.byte	-1
 334              		.bss
 335              		.align	2
 336              		.set	.LANCHOR0,. + 0
 337              		.type	rx, %object
 338              		.size	rx, 1
 339              	rx:
 340 0000 00       		.space	1
 341 0001 00       		.space	1
 342              		.type	sum, %object
 343              		.size	sum, 2
 344              	sum:
 345 0002 0000     		.space	2
 346              		.type	rxdata, %object
 347              		.size	rxdata, 6
 348              	rxdata:
 349 0004 00000000 		.space	6
 349      0000
 350              		.text
ARM GAS  C:\Users\tetsuya\AppData\Local\Temp\ccnizPuX.s 			page 9


 351              	.Letext0:
 352              		.file 2 "c:\\program files (x86)\\cypress\\psoc creator\\4.1\\psoc creator\\import\\gnu\\arm\\5.4.
 353              		.file 3 "c:\\program files (x86)\\cypress\\psoc creator\\4.1\\psoc creator\\import\\gnu\\arm\\5.4.
 354              		.file 4 "Generated_Source\\PSoC5/cytypes.h"
 355              		.file 5 "PS3_Controller.h"
 356              		.file 6 "Generated_Source\\PSoC5/core_cm3.h"
 357              		.file 7 "Generated_Source\\PSoC5/UART_PS3.h"
 358              		.file 8 "Generated_Source\\PSoC5/ISR_PS3.h"